; Function Attrs: mustprogress nounwind uwtable
define internal void @_ZN7Imf_3_212_GLOBAL__N_114LineBufferTaskD2Ev(ptr noundef nonnull align 8 dereferenceable(32) %this) unnamed_addr #4 align 2 personality ptr @__gxx_personality_v0 {
entry:
  store ptr getelementptr inbounds ({ [5 x ptr] }, ptr @_ZTVN7Imf_3_212_GLOBAL__N_114LineBufferTaskE, i64 0, i32 0, i64 2), ptr %this, align 8
  %_lineBuffer = getelementptr inbounds i8, ptr %this, i64 24
  %0 = load ptr, ptr %_lineBuffer, align 8
  %_sem.i = getelementptr inbounds i8, ptr %0, i64 160
  invoke void @_ZN13IlmThread_3_29Semaphore4postEv(ptr noundef nonnull align 8 dereferenceable(40) %_sem.i)
          to label %invoke.cont unwind label %terminate.lpad

invoke.cont:                                      ; preds = %entry
  tail call void @_ZN13IlmThread_3_24TaskD2Ev(ptr noundef nonnull align 8 dereferenceable(16) %this) #20
  ret void

terminate.lpad:                                   ; preds = %entry
  %1 = landingpad { ptr, i32 }
          catch ptr null
  %2 = extractvalue { ptr, i32 } %1, 0
  tail call void @__clang_call_terminate(ptr %2) #22
  unreachable
}